; Function Attrs: mustprogress uwtable
define hidden void @_ZN11upolynomial12core_manager7div_remEjPK3mpzjS3_RjR7svectorIS1_jES7_(ptr noundef nonnull align 8 dereferenceable(272) %0, i32 noundef %1, ptr noundef %2, i32 noundef %3, ptr noundef %4, ptr noundef nonnull align 4 captures(none) dereferenceable(4) initializes((0, 4)) %5, ptr noundef nonnull align 8 captures(none) dereferenceable(8) %6, ptr noundef nonnull align 8 captures(none) dereferenceable(8) %7) local_unnamed_addr #3 align 2 {
  %9 = getelementptr inbounds nuw i8, ptr %0, i64 152
  %10 = getelementptr inbounds nuw i8, ptr %0, i64 160
  tail call void @_ZN11upolynomial12core_manager12div_rem_coreEjPK3mpzjS3_RjR7svectorIS1_jES7_(ptr noundef nonnull align 8 dereferenceable(272) %0, i32 noundef %1, ptr noundef %2, i32 noundef %3, ptr noundef %4, ptr noundef nonnull align 4 dereferenceable(4) %5, ptr noundef nonnull align 8 dereferenceable(8) %10, ptr noundef nonnull align 8 dereferenceable(8) %9)
  %11 = load ptr, ptr %7, align 8, !tbaa !38
  %12 = load ptr, ptr %9, align 8, !tbaa !38
  store ptr %12, ptr %7, align 8, !tbaa !38
  store ptr %11, ptr %9, align 8, !tbaa !38
  %13 = load ptr, ptr %6, align 8, !tbaa !38
  %14 = load ptr, ptr %10, align 8, !tbaa !38
  store ptr %14, ptr %6, align 8, !tbaa !38
  store ptr %13, ptr %10, align 8, !tbaa !38
  ret void
}